Initializing analyzer...
Using model: all-MiniLM-L6-v2
Device: auto

================================================================================
Analyzing: /Users/caevans/repos/loghub/HDFS/HDFS_2k.log
Total lines: 2,000
================================================================================

Analysis Statistics:
  Total windows created: 400
  Significant windows: 40
  Merged blocks: 33
  Processing time: 3.33s

Score Distribution:
  Min:    0.0036
  Mean:   0.0265
  Median: 0.0224
  P90:    0.0473
  Max:    0.2346

                               Significant Blocks
================================================================================
<block lines="26-35" score="0.0848">
081109 205749 997 INFO dfs.DataNode$DataXceiver: Receiving block blk_-28342503914935090 src: /10.251.123.132:57542 dest: /10.251.123.132:50010
081109 205754 952 INFO dfs.DataNode$PacketResponder: Received block blk_8291449241650212794 of size 67108864 from /10.251.89.155
081109 205858 31 INFO dfs.FSNamesystem: BLOCK* NameSystem.allocateBlock: /user/root/rand/_temporary/_task_200811092030_0001_m_000487_0/part-00487. blk_-5319073033164653435
081109 205931 13 INFO dfs.DataBlockScanner: Verification succeeded for blk_-4980916519894289629
081109 210022 1110 INFO dfs.DataNode$PacketResponder: Received block blk_-5974833545991408899 of size 67108864 from /10.251.31.180
081109 210037 1084 INFO dfs.DataNode$DataXceiver: Receiving block blk_-5009020203888190378 src: /10.251.199.19:52622 dest: /10.251.199.19:50010
081109 210248 1138 INFO dfs.DataNode$PacketResponder: Received block blk_6921674711959888070 of size 67108864 from /10.251.65.203
081109 210407 33 INFO dfs.FSNamesystem: BLOCK* NameSystem.addStoredBlock: blockMap updated: 10.250.7.244:50010 is added to blk_5165786360127153975 size 67108864
081109 210458 1278 INFO dfs.DataNode$DataXceiver: Receiving block blk_2937758977269298350 src: /10.251.194.129:37476 dest: /10.251.194.129:50010
081109 210551 32 INFO dfs.FSNamesystem: BLOCK* NameSystem.addStoredBlock: blockMap updated: 10.250.6.191:50010 is added to blk_673825774073966710 size 67108864
</block>

<block lines="66-80" score="0.0917">
081109 213009 2207 INFO dfs.DataNode$PacketResponder: Received block blk_7577595658377008671 of size 67108864 from /10.251.71.97
081109 213028 2206 INFO dfs.DataNode$PacketResponder: Received block blk_3777400576053320362 of size 67108864 from /10.251.31.5
081109 213217 2267 INFO dfs.DataNode$PacketResponder: PacketResponder 0 for block blk_-5852844080027817147 terminating
081109 213353 2313 INFO dfs.DataNode$PacketResponder: Received block blk_-2129171714384027465 of size 67108864 from /10.251.75.228
081109 213436 13 INFO dfs.DataBlockScanner: Verification succeeded for blk_-2827716238972737794
081109 213506 2421 INFO dfs.DataNode$DataXceiver: Receiving block blk_-3509323198988774369 src: /10.250.6.214:52922 dest: /10.250.6.214:50010
081109 213510 2384 INFO dfs.DataNode$PacketResponder: PacketResponder 0 for block blk_9093049293972551787 terminating
081109 213837 19 INFO dfs.FSDataset: Deleting block blk_1781953582842324563 file /mnt/hadoop/dfs/data/current/subdir5/blk_1781953582842324563
081109 213847 2552 INFO dfs.DataNode$DataXceiver: 10.251.194.213:50010 Served block blk_-7724713468912166542 to /10.251.203.80
081109 213907 2497 INFO dfs.DataNode$DataXceiver: 10.251.91.229:50010 Served block blk_-3358448553918665902 to /10.251.91.229
081109 213908 2549 INFO dfs.DataNode$DataXceiver: 10.251.39.192:50010 Served block blk_-5341992729755584578 to /10.251.39.192
081109 214009 2594 INFO dfs.DataNode$DataXceiver: 10.250.5.237:50010 Served block blk_3166960787499091856 to /10.251.43.147
081109 214043 2561 WARN dfs.DataNode$DataXceiver: 10.251.30.85:50010:Got exception while serving blk_-2918118818249673980 to /10.251.90.64:
081109 214402 2677 WARN dfs.DataNode$DataXceiver: 10.251.126.255:50010:Got exception while serving blk_8376667364205250596 to /10.251.91.159:
081109 214524 2633 INFO dfs.DataNode$DataXceiver: 10.251.71.68:50010 Served block blk_-2794533871450434534 to /10.251.199.150
</block>

<block lines="101-110" score="0.0686">
081109 224420 3666 WARN dfs.DataNode$DataXceiver: 10.251.73.188:50010:Got exception while serving blk_7517964792804498202 to /10.250.6.191:
081109 224741 3699 WARN dfs.DataNode$DataXceiver: 10.251.35.1:50010:Got exception while serving blk_7940316270494947483 to /10.251.122.38:
081109 230110 3647 WARN dfs.DataNode$DataXceiver: 10.251.90.134:50010:Got exception while serving blk_7154985168984871115 to /10.251.110.160:
081109 232200 3856 INFO dfs.DataNode$PacketResponder: Received block blk_-6867873931012347356 of size 67108864 from /10.251.39.64
081109 232324 32 INFO dfs.FSNamesystem: BLOCK* NameSystem.addStoredBlock: blockMap updated: 10.251.107.19:50010 is added to blk_6093743385844975689 size 67108864
081109 232346 3820 INFO dfs.DataNode$DataXceiver: Receiving block blk_8692428775973608797 src: /10.250.10.213:56574 dest: /10.250.10.213:50010
081109 232639 3792 INFO dfs.DataNode$PacketResponder: PacketResponder 0 for block blk_-6837050820114491742 terminating
081109 232828 3875 INFO dfs.DataNode$PacketResponder: Received block blk_-5195432543794777448 of size 67108864 from /10.250.10.6
081109 232829 33 INFO dfs.FSNamesystem: BLOCK* NameSystem.addStoredBlock: blockMap updated: 10.251.110.68:50010 is added to blk_1636660629634995787 size 67108864
081109 232833 32 INFO dfs.FSNamesystem: BLOCK* NameSystem.addStoredBlock: blockMap updated: 10.251.75.79:50010 is added to blk_467589865104023338 size 67108864
</block>

<block lines="201-210" score="0.0765">
081110 011431 33 INFO dfs.FSNamesystem: BLOCK* NameSystem.allocateBlock: /user/root/randtxt/_temporary/_task_200811092030_0003_m_000675_0/part-00675. blk_-7866582011201618766
081110 011448 28 INFO dfs.FSNamesystem: BLOCK* NameSystem.addStoredBlock: blockMap updated: 10.251.214.18:50010 is added to blk_-7555801584297376435 size 67108864
081110 011505 29 INFO dfs.FSNamesystem: BLOCK* NameSystem.addStoredBlock: blockMap updated: 10.251.26.177:50010 is added to blk_-5949883083428548093 size 67108864
081110 011521 33 INFO dfs.FSNamesystem: BLOCK* NameSystem.allocateBlock: /user/root/randtxt/_temporary/_task_200811092030_0003_m_000705_0/part-00705. blk_-9162090767925303921
081110 011538 5164 INFO dfs.DataNode$PacketResponder: PacketResponder 1 for block blk_-4196449318426994195 terminating
081110 011713 5420 INFO dfs.DataNode$DataXceiver: Receiving block blk_4238127626194855481 src: /10.250.11.100:59324 dest: /10.250.11.100:50010
081110 011731 5472 INFO dfs.DataNode$PacketResponder: Received block blk_-3805070405372551730 of size 67108864 from /10.251.109.236
081110 011846 5274 INFO dfs.DataNode$PacketResponder: Received block blk_-2013946318750925538 of size 67108864 from /10.251.126.22
081110 011925 5356 INFO dfs.DataNode$PacketResponder: PacketResponder 1 for block blk_3278280638950561822 terminating
081110 012005 5368 INFO dfs.DataNode$PacketResponder: PacketResponder 1 for block blk_-26568864070436835 terminating
</block>

<block lines="256-265" score="0.0517">
081110 014847 5846 INFO dfs.DataNode$PacketResponder: PacketResponder 1 for block blk_703046261120042821 terminating
081110 014914 30 INFO dfs.FSNamesystem: BLOCK* NameSystem.allocateBlock: /user/root/randtxt/_temporary/_task_200811092030_0003_m_001728_0/part-01728. blk_-488298625688742454
081110 014953 5959 INFO dfs.DataNode$PacketResponder: PacketResponder 1 for block blk_6465095458973828118 terminating
081110 015013 6133 INFO dfs.DataNode$PacketResponder: PacketResponder 2 for block blk_-9110604833387121363 terminating
081110 015018 5852 INFO dfs.DataNode$DataXceiver: Receiving block blk_5977008528949258706 src: /10.251.214.32:43860 dest: /10.251.214.32:50010
081110 015024 5938 INFO dfs.DataNode$PacketResponder: PacketResponder 2 for block blk_3781645897486585075 terminating
081110 015031 26 INFO dfs.FSNamesystem: BLOCK* NameSystem.addStoredBlock: blockMap updated: 10.250.11.194:50010 is added to blk_-1635752698830216319 size 67108864
081110 015334 5970 INFO dfs.DataNode$PacketResponder: PacketResponder 0 for block blk_3070718541088657475 terminating
081110 015340 32 INFO dfs.FSNamesystem: BLOCK* NameSystem.allocateBlock: /user/root/randtxt/_temporary/_task_200811092030_0003_m_001661_0/part-01661. blk_-1674094254141559552
081110 015423 26 INFO dfs.FSNamesystem: BLOCK* NameSystem.addStoredBlock: blockMap updated: 10.251.197.161:50010 is added to blk_6080034782037237879 size 67108864
</block>

<block lines="291-300" score="0.0799">
081110 020632 32 INFO dfs.FSNamesystem: BLOCK* NameSystem.addStoredBlock: blockMap updated: 10.251.43.192:50010 is added to blk_325981833999429148 size 67108864
081110 020724 29 INFO dfs.FSNamesystem: BLOCK* NameSystem.delete: blk_2568309208894455676 is added to invalidSet of 10.251.31.160:50010
081110 022226 6281 INFO dfs.DataNode$DataXceiver: 10.250.19.16:50010 Served block blk_1078000656626961731 to /10.250.19.16
081110 023456 6415 WARN dfs.DataNode$DataXceiver: 10.251.67.225:50010:Got exception while serving blk_-6900989714336081087 to /10.251.25.237:
081110 024834 6371 INFO dfs.DataNode$DataXceiver: 10.251.126.227:50010 Served block blk_-8306714721294235181 to /10.251.126.227
081110 030331 6561 WARN dfs.DataNode$DataXceiver: 10.251.42.191:50010:Got exception while serving blk_-8023826090828946372 to /10.251.214.130:
081110 030942 6646 WARN dfs.DataNode$DataXceiver: 10.251.31.5:50010:Got exception while serving blk_-1367876730256254709 to /10.251.67.225:
081110 031019 6604 INFO dfs.DataNode$DataXceiver: 10.251.126.83:50010 Served block blk_-3860894070657427592 to /10.251.126.83
081110 032126 6555 WARN dfs.DataNode$DataXceiver: 10.251.26.8:50010:Got exception while serving blk_-7983508786213002472 to /10.251.38.197:
081110 035357 6606 INFO dfs.DataNode$DataXceiver: 10.251.71.97:50010 Served block blk_5454332143498402824 to /10.250.15.67
</block>

<block lines="436-445" score="0.0537">
081110 103340 9214 INFO dfs.DataNode$PacketResponder: PacketResponder 2 for block blk_-6997219177553478996 terminating
081110 103343 27 INFO dfs.FSNamesystem: BLOCK* NameSystem.allocateBlock: /user/root/rand/_temporary/_task_200811101024_0001_m_000206_0/part-00206. blk_-2230892279625104430
081110 103347 19 INFO dfs.FSDataset: Deleting block blk_-7515058933811567980 file /mnt/hadoop/dfs/data/current/subdir1/blk_-7515058933811567980
081110 103348 19 INFO dfs.FSDataset: Deleting block blk_-8484827087450439270 file /mnt/hadoop/dfs/data/current/subdir25/blk_-8484827087450439270
081110 103349 19 INFO dfs.FSDataset: Deleting block blk_-8144387882075572886 file /mnt/hadoop/dfs/data/current/subdir42/blk_-8144387882075572886
081110 103354 19 INFO dfs.FSDataset: Deleting block blk_-8383503596684323017 file /mnt/hadoop/dfs/data/current/subdir26/blk_-8383503596684323017
081110 103400 19 INFO dfs.FSDataset: Deleting block blk_-8796256534683400159 file /mnt/hadoop/dfs/data/current/subdir18/blk_-8796256534683400159
081110 103403 19 INFO dfs.FSDataset: Deleting block blk_-8775602795571523802 file /mnt/hadoop/dfs/data/current/subdir41/blk_-8775602795571523802
081110 103412 7249 INFO dfs.DataNode$PacketResponder: Received block blk_4098532420907418423 of size 67108864 from /10.251.43.147
081110 103430 19 INFO dfs.FSDataset: Deleting block blk_-4368236874477798428 file /mnt/hadoop/dfs/data/current/subdir33/blk_-4368236874477798428
</block>

<block lines="501-510" score="0.0602">
081110 103850 32 INFO dfs.FSNamesystem: BLOCK* NameSystem.allocateBlock: /user/root/rand/_temporary/_task_200811101024_0001_m_000056_0/part-00056. blk_6140788650991100539
081110 103922 19 INFO dfs.FSDataset: Deleting block blk_7754477838724397551 file /mnt/hadoop/dfs/data/current/subdir46/blk_7754477838724397551
081110 104018 9085 INFO dfs.DataNode$PacketResponder: PacketResponder 0 for block blk_-3452734573703603740 terminating
081110 104047 8882 INFO dfs.DataNode$PacketResponder: Received block blk_-4034227974316905164 of size 67108864 from /10.250.15.198
081110 104224 34 INFO dfs.FSNamesystem: BLOCK* NameSystem.allocateBlock: /user/root/rand/_temporary/_task_200811101024_0001_m_000346_0/part-00346. blk_-2016403519138424998
081110 104231 8978 INFO dfs.DataNode$DataXceiver: Receiving block blk_2972699288862031202 src: /10.250.5.161:51077 dest: /10.250.5.161:50010
081110 104309 9091 INFO dfs.DataNode$DataXceiver: Receiving block blk_-4956232013010963754 src: /10.251.126.22:58984 dest: /10.251.126.22:50010
081110 104321 28 INFO dfs.FSNamesystem: BLOCK* NameSystem.addStoredBlock: blockMap updated: 10.250.15.198:50010 is added to blk_8894334107354324777 size 3549832
081110 104357 9263 INFO dfs.DataNode$PacketResponder: PacketResponder 2 for block blk_-6035642070260562886 terminating
081110 104401 29 INFO dfs.FSNamesystem: BLOCK* NameSystem.addStoredBlock: blockMap updated: 10.251.107.196:50010 is added to blk_4802366409699286298 size 3547304
</block>

<block lines="516-530" score="0.0701">
081110 104839 9163 INFO dfs.DataNode$PacketResponder: Received block blk_-5236578579938215340 of size 67108864 from /10.250.7.244
081110 104847 32 INFO dfs.FSNamesystem: BLOCK* NameSystem.addStoredBlock: blockMap updated: 10.251.39.144:50010 is added to blk_-6592952246351162022 size 67108864
081110 104914 33 INFO dfs.FSNamesystem: BLOCK* NameSystem.addStoredBlock: blockMap updated: 10.250.14.224:50010 is added to blk_-3329473910909732817 size 67108864
081110 105000 19 INFO dfs.FSDataset: Deleting block blk_-1347057913082589493 file /mnt/hadoop/dfs/data/current/subdir56/blk_-1347057913082589493
081110 105149 9274 INFO dfs.DataNode$DataXceiver: Receiving block blk_-8198423074054354279 src: /10.251.203.149:46429 dest: /10.251.203.149:50010
081110 105203 9267 INFO dfs.DataNode$PacketResponder: PacketResponder 0 for block blk_391813102554451063 terminating
081110 105219 28 INFO dfs.FSNamesystem: BLOCK* NameSystem.addStoredBlock: blockMap updated: 10.251.214.67:50010 is added to blk_-6449891932967810179 size 67108864
081110 105252 9416 INFO dfs.DataNode$DataXceiver: Receiving block blk_-8563999607069929505 src: /10.251.107.19:60076 dest: /10.251.107.19:50010
081110 105345 19 INFO dfs.FSDataset: Deleting block blk_-4304240611296196935 file /mnt/hadoop/dfs/data/current/subdir55/blk_-4304240611296196935
081110 105456 32 INFO dfs.FSNamesystem: BLOCK* NameSystem.addStoredBlock: blockMap updated: 10.251.110.68:50010 is added to blk_-3663004104512304532 size 67108864
081110 105512 30 INFO dfs.FSNamesystem: BLOCK* NameSystem.allocateBlock: /user/root/rand/_temporary/_task_200811101024_0001_m_000749_0/part-00749. blk_-6909607053783233975
081110 105521 9428 INFO dfs.DataNode$PacketResponder: Received block blk_-2141627858612526069 of size 67108864 from /10.251.111.37
081110 105553 9531 INFO dfs.DataNode$DataXceiver: Receiving block blk_5272731391668336674 src: /10.250.6.191:46509 dest: /10.250.6.191:50010
081110 105607 34 INFO dfs.FSNamesystem: BLOCK* NameSystem.addStoredBlock: blockMap updated: 10.251.39.179:50010 is added to blk_5491101910066444061 size 67108864
081110 105628 19 INFO dfs.FSDataset: Deleting block blk_5075966182561035053 file /mnt/hadoop/dfs/data/current/subdir53/blk_5075966182561035053
</block>

<block lines="646-655" score="0.0767">
081110 121758 13 INFO dfs.DataBlockScanner: Verification succeeded for blk_1649162819905816843
081110 121943 29 INFO dfs.FSNamesystem: BLOCK* NameSystem.allocateBlock: /user/root/randtxt2/_temporary/_task_200811101024_0002_m_001335_0/part-01335. blk_-2541428592126088938
081110 121951 30 INFO dfs.FSNamesystem: BLOCK* NameSystem.addStoredBlock: blockMap updated: 10.251.66.3:50010 is added to blk_6547729596040509998 size 67108864
081110 122121 10760 INFO dfs.DataNode$DataXceiver: Receiving block blk_-3673133694834392576 src: /10.251.109.209:49088 dest: /10.251.109.209:50010
081110 122207 11264 INFO dfs.DataNode$PacketResponder: Received block blk_48742413802609430 of size 67108864 from /10.251.106.10
081110 122210 11081 INFO dfs.DataNode$DataXceiver: Receiving block blk_6085274723649229095 src: /10.251.127.191:51113 dest: /10.251.127.191:50010
081110 122309 11240 INFO dfs.DataNode$PacketResponder: Received block blk_-227411387418683230 of size 67108864 from /10.251.194.213
081110 122314 29 INFO dfs.FSNamesystem: BLOCK* NameSystem.addStoredBlock: blockMap updated: 10.251.31.160:50010 is added to blk_3079488924320077240 size 67108864
081110 122407 11042 INFO dfs.DataNode$PacketResponder: Received block blk_692184983396207285 of size 67108864 from /10.250.6.214
081110 122444 30 INFO dfs.FSNamesystem: BLOCK* NameSystem.addStoredBlock: blockMap updated: 10.251.66.102:50010 is added to blk_-5009274684359267777 size 67108864
</block>

<block lines="701-710" score="0.0781">
081110 135803 12201 INFO dfs.DataNode$DataXceiver: 10.251.214.18:50010 Served block blk_7297060562345904886 to /10.251.29.239
081110 135806 12060 WARN dfs.DataNode$DataXceiver: 10.251.215.70:50010:Got exception while serving blk_-7391656937286046074 to /10.251.107.196:
081110 142841 28 INFO dfs.FSNamesystem: BLOCK* NameSystem.allocateBlock: /user/root/sortrand2/_temporary/_task_200811101024_0003_r_000258_0/part-00258. blk_387577766066135394
081110 143222 12360 INFO dfs.DataNode$DataXceiver: Receiving block blk_6107935679779418195 src: /10.251.43.115:55925 dest: /10.251.43.115:50010
081110 143232 12469 INFO dfs.DataNode$PacketResponder: PacketResponder 2 for block blk_3584162266158512993 terminating
081110 143318 12458 INFO dfs.DataNode$PacketResponder: PacketResponder 2 for block blk_-2591043665372016488 terminating
081110 143336 30 INFO dfs.FSNamesystem: BLOCK* NameSystem.allocateBlock: /user/root/sortrand2/_temporary/_task_200811101024_0003_r_000257_0/part-00257. blk_-1732662141253491971
081110 143353 12141 INFO dfs.DataNode$DataXceiver: Receiving block blk_4959462704623252283 src: /10.251.125.174:44166 dest: /10.251.125.174:50010
081110 143430 34 INFO dfs.FSNamesystem: BLOCK* NameSystem.addStoredBlock: blockMap updated: 10.250.7.96:50010 is added to blk_4553790855855864497 size 67108864
081110 143551 12299 INFO dfs.DataNode$DataXceiver: Receiving block blk_-3261177124784025140 src: /10.251.29.239:43937 dest: /10.251.29.239:50010
</block>

<block lines="761-770" score="0.0886">
081110 150618 30 INFO dfs.FSNamesystem: BLOCK* NameSystem.addStoredBlock: blockMap updated: 10.251.73.188:50010 is added to blk_-3897674589140998025 size 67108864
081110 150751 27 INFO dfs.FSNamesystem: BLOCK* NameSystem.addStoredBlock: blockMap updated: 10.250.17.225:50010 is added to blk_-3573208405519699182 size 67108864
081110 150809 26 INFO dfs.FSNamesystem: BLOCK* NameSystem.addStoredBlock: blockMap updated: 10.251.214.67:50010 is added to blk_4154740411570608045 size 67108864
081110 150933 34 INFO dfs.FSNamesystem: BLOCK* NameSystem.addStoredBlock: blockMap updated: 10.251.203.179:50010 is added to blk_8188837227311063557 size 67108864
081110 151115 34 INFO dfs.FSNamesystem: BLOCK* NameSystem.addStoredBlock: blockMap updated: 10.251.42.191:50010 is added to blk_-4208396523159735354 size 67108864
081110 151202 13109 INFO dfs.DataNode$DataXceiver: Receiving block blk_7572868180557515526 src: /10.251.214.130:38983 dest: /10.251.214.130:50010
081110 151229 13144 INFO dfs.DataNode$PacketResponder: PacketResponder 2 for block blk_-1733803097614960767 terminating
081110 151307 35 INFO dfs.FSNamesystem: BLOCK* NameSystem.allocateBlock: /user/root/sortrand2/_temporary/_task_200811101024_0003_r_000152_0/part-00152. blk_-7603795308074215276
081110 151427 35 INFO dfs.FSNamesystem: BLOCK* NameSystem.allocateBlock: /user/root/sortrand2/_temporary/_task_200811101024_0003_r_000344_0/part-00344. blk_-2004529166303428909
081110 151503 13083 INFO dfs.DataNode$DataXceiver: Receiving block blk_-5817942497672492100 src: /10.251.107.19:35639 dest: /10.251.107.19:50010
</block>

<block lines="841-850" score="0.0632">
081110 210201 28 INFO dfs.FSNamesystem: BLOCK* NameSystem.delete: blk_-2439225174716664723 is added to invalidSet of 10.251.42.207:50010
081110 210201 28 INFO dfs.FSNamesystem: BLOCK* NameSystem.delete: blk_-9220604860626391374 is added to invalidSet of 10.251.30.179:50010
081110 210210 14441 INFO dfs.DataNode$DataXceiver: 10.250.15.101:50010 Served block blk_-2557432794238860908 to /10.251.74.134
081110 210243 14482 INFO dfs.DataNode$PacketResponder: Received block blk_-8214089520956286311 of size 67108864 from /10.251.26.131
081110 210252 18 INFO dfs.FSDataset: Deleting block blk_-8949548167466276130 file /mnt/hadoop/dfs/data/current/subdir2/blk_-8949548167466276130
081110 210255 14644 INFO dfs.DataNode$DataXceiver: Receiving block blk_-4831379247767940447 src: /10.251.65.237:42885 dest: /10.251.65.237:50010
081110 210259 19 INFO dfs.FSDataset: Deleting block blk_-7548149518969960333 file /mnt/hadoop/dfs/data/current/subdir8/blk_-7548149518969960333
081110 210308 19 INFO dfs.FSDataset: Deleting block blk_-7353572928777348242 file /mnt/hadoop/dfs/data/current/subdir22/blk_-7353572928777348242
081110 210330 19 INFO dfs.FSDataset: Deleting block blk_7206839389762980382 file /mnt/hadoop/dfs/data/current/subdir61/blk_7206839389762980382
081110 210339 19 INFO dfs.FSDataset: Deleting block blk_-9171803179611497035 file /mnt/hadoop/dfs/data/current/subdir35/blk_-9171803179611497035
</block>

<block lines="901-910" score="0.0537">
081110 211030 19 INFO dfs.FSDataset: Deleting block blk_7360639743953947587 file /mnt/hadoop/dfs/data/current/subdir35/blk_7360639743953947587
081110 211108 14882 INFO dfs.DataNode$PacketResponder: Received block blk_4182287230523664560 of size 67108864 from /10.251.111.130
081110 211109 14620 INFO dfs.DataNode$DataXceiver: Receiving block blk_995094303184954394 src: /10.251.91.84:35590 dest: /10.251.91.84:50010
081110 211122 33 INFO dfs.FSNamesystem: BLOCK* NameSystem.addStoredBlock: blockMap updated: 10.251.30.6:50010 is added to blk_3585424189730250601 size 67108864
081110 211131 14600 INFO dfs.DataNode$PacketResponder: PacketResponder 1 for block blk_-5680441982827916621 terminating
081110 211323 14609 INFO dfs.DataNode$PacketResponder: PacketResponder 0 for block blk_2089955821703690032 terminating
081110 211355 32 INFO dfs.FSNamesystem: BLOCK* NameSystem.addStoredBlock: blockMap updated: 10.251.106.10:50010 is added to blk_1151012386083696649 size 67108864
081110 211358 14754 INFO dfs.DataNode$DataXceiver: Receiving block blk_4149909442914612270 src: /10.251.195.33:55490 dest: /10.251.195.33:50010
081110 211410 14947 INFO dfs.DataNode$PacketResponder: PacketResponder 0 for block blk_2282833575688432184 terminating
081110 211504 14451 INFO dfs.DataNode$PacketResponder: Received block blk_3960527526103274525 of size 67108864 from /10.251.30.134
</block>

<block lines="926-935" score="0.0582">
081110 212501 15023 INFO dfs.DataNode$PacketResponder: Received block blk_6686361711974377273 of size 3554889 from /10.251.214.130
081110 212509 34 INFO dfs.FSNamesystem: BLOCK* NameSystem.addStoredBlock: blockMap updated: 10.251.123.33:50010 is added to blk_-6442394521537090621 size 67108864
081110 212510 19 INFO dfs.FSNamesystem: BLOCK* ask 10.250.18.114:50010 to delete  blk_-5140072410813878235
081110 212556 27 INFO dfs.FSNamesystem: BLOCK* NameSystem.addStoredBlock: blockMap updated: 10.251.91.84:50010 is added to blk_6039898256291822367 size 67108864
081110 212644 28 INFO dfs.FSNamesystem: BLOCK* NameSystem.allocateBlock: /user/root/rand3/_temporary/_task_200811101024_0005_m_000720_0/part-00720. blk_-7988596544606686086
081110 212831 14962 INFO dfs.DataNode$PacketResponder: PacketResponder 1 for block blk_5729560286355779655 terminating
081110 212851 28 INFO dfs.FSNamesystem: BLOCK* NameSystem.addStoredBlock: blockMap updated: 10.251.126.5:50010 is added to blk_-989798817617753264 size 67108864
081110 212942 15258 INFO dfs.DataNode$PacketResponder: Received block blk_-2242088550278361724 of size 67108864 from /10.251.123.20
081110 213021 15065 INFO dfs.DataNode$PacketResponder: Received block blk_5602895463700536678 of size 67108864 from /10.251.30.179
081110 213026 15051 INFO dfs.DataNode$DataXceiver: Receiving block blk_7580930377559819562 src: /10.251.110.68:54793 dest: /10.251.110.68:50010
</block>

<block lines="981-990" score="0.0591">
081110 220314 15849 INFO dfs.DataNode$DataXceiver: Receiving block blk_-7914996925059840931 src: /10.251.91.15:59714 dest: /10.251.91.15:50010
081110 220350 15848 INFO dfs.DataNode$PacketResponder: Received block blk_5379939266348893280 of size 67108864 from /10.251.66.63
081110 220626 34 INFO dfs.FSNamesystem: BLOCK* NameSystem.delete: blk_8981795097778421111 is added to invalidSet of 10.251.194.129:50010
081110 220630 34 INFO dfs.FSNamesystem: BLOCK* NameSystem.delete: blk_1979447750586388860 is added to invalidSet of 10.251.215.192:50010
081110 220636 32 INFO dfs.FSNamesystem: BLOCK* NameSystem.delete: blk_3332848207645320273 is added to invalidSet of 10.251.90.64:50010
081110 220636 32 INFO dfs.FSNamesystem: BLOCK* NameSystem.delete: blk_6881216037013929188 is added to invalidSet of 10.251.91.32:50010
081110 220637 32 INFO dfs.FSNamesystem: BLOCK* NameSystem.delete: blk_7541621664406141215 is added to invalidSet of 10.251.214.32:50010
081110 220645 32 INFO dfs.FSNamesystem: BLOCK* NameSystem.delete: blk_-1680175975862749862 is added to invalidSet of 10.250.14.38:50010
081110 220646 32 INFO dfs.FSNamesystem: BLOCK* NameSystem.delete: blk_5176179471361959897 is added to invalidSet of 10.250.9.207:50010
081110 220648 32 INFO dfs.FSNamesystem: BLOCK* NameSystem.delete: blk_-4385347171136037814 is added to invalidSet of 10.251.67.113:50010
</block>

<block lines="1001-1015" score="0.0761">
081110 220658 32 INFO dfs.FSNamesystem: BLOCK* NameSystem.delete: blk_7017399031777870797 is added to invalidSet of 10.250.5.161:50010
081110 220708 19 INFO dfs.FSDataset: Deleting block blk_-6891122177443047531 file /mnt/hadoop/dfs/data/current/subdir36/blk_-6891122177443047531
081110 220711 30 INFO dfs.FSNamesystem: BLOCK* NameSystem.allocateBlock: /user/root/randtxt3/_temporary/_task_200811101024_0007_m_000190_0/part-00190. blk_641646158310569454
081110 220749 19 INFO dfs.FSDataset: Deleting block blk_-9171930401624803515 file /mnt/hadoop/dfs/data/current/subdir56/blk_-9171930401624803515
081110 220801 32 INFO dfs.FSNamesystem: BLOCK* NameSystem.addStoredBlock: blockMap updated: 10.251.42.84:50010 is added to blk_5938666289587069744 size 67108864
081110 220804 19 INFO dfs.FSDataset: Deleting block blk_-8294986551316947211 file /mnt/hadoop/dfs/data/current/subdir34/blk_-8294986551316947211
081110 220811 19 INFO dfs.FSDataset: Deleting block blk_-5718504625725408070 file /mnt/hadoop/dfs/data/current/blk_-5718504625725408070
081110 220830 29 INFO dfs.FSNamesystem: BLOCK* NameSystem.allocateBlock: /user/root/randtxt3/_temporary/_task_200811101024_0007_m_000374_0/part-00374. blk_-1941312615450572331
081110 220853 19 INFO dfs.FSDataset: Deleting block blk_2353918919834315845 file /mnt/hadoop/dfs/data/current/subdir35/blk_2353918919834315845
081110 220907 19 INFO dfs.FSDataset: Deleting block blk_391507259220628397 file /mnt/hadoop/dfs/data/current/blk_391507259220628397
081110 220909 19 INFO dfs.FSDataset: Deleting block blk_-1263913006422225885 file /mnt/hadoop/dfs/data/current/subdir2/blk_-1263913006422225885
081110 220911 19 INFO dfs.FSDataset: Deleting block blk_6542592144596063478 file /mnt/hadoop/dfs/data/current/subdir35/blk_6542592144596063478
081110 220916 15860 INFO dfs.DataNode$DataXceiver: Receiving block blk_-4473277914543734578 src: /10.251.215.16:34762 dest: /10.251.215.16:50010
081110 220921 19 INFO dfs.FSDataset: Deleting block blk_1689772850125323349 file /mnt/hadoop/dfs/data/current/subdir27/blk_1689772850125323349
081110 220923 19 INFO dfs.FSDataset: Deleting block blk_8615522912610884162 file /mnt/hadoop/dfs/data/current/subdir35/blk_8615522912610884162
</block>

<block lines="1026-1035" score="0.0569">
081110 221447 28 INFO dfs.FSNamesystem: BLOCK* NameSystem.addStoredBlock: blockMap updated: 10.251.43.115:50010 is added to blk_-7893636450787030202 size 67108864
081110 221653 15684 INFO dfs.DataNode$PacketResponder: Received block blk_-5777981614298940026 of size 67108864 from /10.251.214.67
081110 221803 15957 INFO dfs.DataNode$PacketResponder: Received block blk_4231049049582051919 of size 28496610 from /10.250.19.227
081110 221932 19 INFO dfs.FSNamesystem: BLOCK* ask 10.251.122.79:50010 to delete  blk_8048594464172649365
081110 221943 15858 INFO dfs.DataNode$DataXceiver: Receiving block blk_4414644179961808738 src: /10.251.107.98:46161 dest: /10.251.107.98:50010
081110 222039 16041 INFO dfs.DataNode$DataXceiver: Receiving block blk_7661189768086976193 src: /10.251.195.52:56915 dest: /10.251.195.52:50010
081110 222052 16100 INFO dfs.DataNode$PacketResponder: PacketResponder 1 for block blk_-7170175035335391571 terminating
081110 222130 27 INFO dfs.FSNamesystem: BLOCK* NameSystem.addStoredBlock: blockMap updated: 10.250.15.198:50010 is added to blk_4992622607400168655 size 67108864
081110 222221 15824 INFO dfs.DataNode$PacketResponder: PacketResponder 1 for block blk_8971893898579544235 terminating
081110 222321 16072 INFO dfs.DataNode$DataXceiver: Receiving block blk_-7418372263556457716 src: /10.251.89.155:53560 dest: /10.251.89.155:50010
</block>

<block lines="1101-1115" score="0.0756">
081110 230536 16598 INFO dfs.DataNode$PacketResponder: PacketResponder 1 for block blk_-6934248664959947757 terminating
081110 230545 16742 INFO dfs.DataNode$PacketResponder: Received block blk_-2082401934988378573 of size 67108864 from /10.251.214.112
081110 230627 16366 INFO dfs.DataNode$PacketResponder: PacketResponder 1 for block blk_7627900514276120558 terminating
081110 230628 16721 INFO dfs.DataNode$PacketResponder: PacketResponder 0 for block blk_-1250775350296476256 terminating
081110 230633 16678 INFO dfs.DataNode$PacketResponder: PacketResponder 2 for block blk_2389216938154332862 terminating
081110 230859 26 INFO dfs.FSNamesystem: BLOCK* NameSystem.addStoredBlock: blockMap updated: 10.251.38.53:50010 is added to blk_7430820184211246929 size 67108864
081110 231236 31 INFO dfs.FSNamesystem: BLOCK* NameSystem.delete: blk_-608202790716579401 is added to invalidSet of 10.251.198.33:50010
081110 231241 26 INFO dfs.FSNamesystem: BLOCK* NameSystem.delete: blk_-1335063409877429524 is added to invalidSet of 10.251.107.196:50010
081110 231556 16543 INFO dfs.DataNode$DataXceiver: 10.251.202.181:50010 Served block blk_-5236655516146555545 to /10.251.31.5
081110 231904 17028 WARN dfs.DataNode$DataXceiver: 10.251.75.143:50010:Got exception while serving blk_2262752117989012641 to /10.250.13.188:
081110 231911 16933 WARN dfs.DataNode$DataXceiver: 10.251.126.227:50010:Got exception while serving blk_-4181768899028058192 to /10.251.26.177:
081110 232739 16715 INFO dfs.DataNode$DataXceiver: 10.251.123.99:50010 Served block blk_-7990763409688650846 to /10.251.197.161
081110 233940 17094 INFO dfs.DataNode$DataXceiver: 10.250.17.225:50010 Served block blk_-2656323385657954732 to /10.250.17.225
081110 233954 17191 WARN dfs.DataNode$DataXceiver: 10.250.7.230:50010:Got exception while serving blk_-7029628814943626474 to /10.251.38.197:
081110 235445 16879 INFO dfs.DataNode$DataXceiver: 10.251.127.243:50010 Served block blk_8711213005689112399 to /10.251.74.134
</block>

<block lines="1151-1160" score="0.0620">
081111 023039 27 INFO dfs.FSNamesystem: BLOCK* NameSystem.delete: blk_3428998332517532825 is added to invalidSet of 10.251.43.192:50010
081111 023139 19 INFO dfs.FSDataset: Deleting block blk_-7106479503467535906 file /mnt/hadoop/dfs/data/current/subdir32/blk_-7106479503467535906
081111 023149 19 INFO dfs.FSDataset: Deleting block blk_-7411858598798393933 file /mnt/hadoop/dfs/data/current/subdir24/blk_-7411858598798393933
081111 023156 19 INFO dfs.FSDataset: Deleting block blk_-5429479049793046826 file /mnt/hadoop/dfs/data/current/subdir34/blk_-5429479049793046826
081111 023158 19 INFO dfs.FSDataset: Deleting block blk_-6431101765137189231 file /mnt/hadoop/dfs/data/current/subdir33/blk_-6431101765137189231
081111 023216 19 INFO dfs.FSDataset: Deleting block blk_-2923662094689783995 file /mnt/hadoop/dfs/data/current/subdir38/blk_-2923662094689783995
081111 023222 17683 INFO dfs.DataNode$DataXceiver: 10.250.14.143:50010 Served block blk_-664656559337730574 to /10.250.7.96
081111 023222 17788 INFO dfs.DataNode$PacketResponder: Received block blk_3224393364314749254 of size 67108864 from /10.251.37.240
081111 023229 19 INFO dfs.FSDataset: Deleting block blk_1483582953997932733 file /mnt/hadoop/dfs/data/current/subdir7/blk_1483582953997932733
081111 023230 19 INFO dfs.FSDataset: Deleting block blk_-3607708283707030582 file /mnt/hadoop/dfs/data/current/subdir31/blk_-3607708283707030582
</block>

<block lines="1261-1275" score="0.0571">
081111 033444 18940 INFO dfs.DataNode$DataXceiver: Receiving block blk_-1690784932539647416 src: /10.251.31.180:50205 dest: /10.251.31.180:50010
081111 033505 18847 INFO dfs.DataNode$PacketResponder: PacketResponder 1 for block blk_6745520736924802462 terminating
081111 033819 33 INFO dfs.FSNamesystem: BLOCK* NameSystem.delete: blk_-1525964299678787959 is added to invalidSet of 10.251.37.240:50010
081111 033823 31 INFO dfs.FSNamesystem: BLOCK* NameSystem.delete: blk_7045475543362904558 is added to invalidSet of 10.251.106.214:50010
081111 033824 28 INFO dfs.FSNamesystem: BLOCK* NameSystem.delete: blk_-6802124772693111025 is added to invalidSet of 10.251.66.63:50010
081111 033829 18 INFO dfs.FSDataset: Deleting block blk_-5205950257901523262 file /mnt/hadoop/dfs/data/current/subdir40/blk_-5205950257901523262
081111 033925 18906 INFO dfs.DataNode$PacketResponder: PacketResponder 2 for block blk_-1649239999940418046 terminating
081111 033927 19172 INFO dfs.DataNode$PacketResponder: Received block blk_6880728743505526406 of size 67108864 from /10.251.197.226
081111 033935 18945 INFO dfs.DataNode$DataXceiver: Receiving block blk_5256716488526744434 src: /10.251.73.220:42064 dest: /10.251.73.220:50010
081111 033953 26 INFO dfs.FSNamesystem: BLOCK* NameSystem.addStoredBlock: blockMap updated: 10.251.26.177:50010 is added to blk_6928449948805597176 size 67108864
081111 034105 18847 INFO dfs.DataNode$PacketResponder: PacketResponder 2 for block blk_2529569087635823495 terminating
081111 034252 33 INFO dfs.FSNamesystem: BLOCK* NameSystem.allocateBlock: /user/root/randtxt4/_temporary/_task_200811101024_0010_m_000222_0/part-00222. blk_3764836840384130740
081111 034323 19025 INFO dfs.DataNode$DataXceiver: Receiving block blk_3020717811556957482 src: /10.251.90.81:48077 dest: /10.251.90.81:50010
081111 034351 18690 INFO dfs.DataNode$PacketResponder: Received block blk_-577659324269246113 of size 67108864 from /10.251.203.179
081111 034456 18909 INFO dfs.DataNode$PacketResponder: PacketResponder 0 for block blk_6137960563260046065 terminating
</block>

<block lines="1381-1390" score="0.0712">
081111 044351 29 INFO dfs.FSNamesystem: BLOCK* NameSystem.delete: blk_-1573544581830458089 is added to invalidSet of 10.251.122.65:50010
081111 044353 19 INFO dfs.FSDataset: Deleting block blk_-1180596628202464893 file /mnt/hadoop/dfs/data/current/subdir52/blk_-1180596628202464893
081111 044427 20289 INFO dfs.DataNode$DataXceiver: Receiving block blk_1407935810673971357 src: /10.251.123.99:54184 dest: /10.251.123.99:50010
081111 044522 18 INFO dfs.FSDataset: Deleting block blk_-8167717961644709843 file /mnt/hadoop/dfs/data/current/blk_-8167717961644709843
081111 044543 19 INFO dfs.FSDataset: Deleting block blk_-7464161062429228045 file /mnt/hadoop/dfs/data/current/subdir19/blk_-7464161062429228045
081111 044546 19 INFO dfs.FSDataset: Deleting block blk_-5934436507161953485 file /mnt/hadoop/dfs/data/current/subdir33/blk_-5934436507161953485
081111 044546 20347 INFO dfs.DataNode$PacketResponder: Received block blk_-3922743468150895472 of size 67108864 from /10.251.39.179
081111 044550 19 INFO dfs.FSDataset: Deleting block blk_-7832937837605180330 file /mnt/hadoop/dfs/data/current/subdir49/blk_-7832937837605180330
081111 044554 19 INFO dfs.FSDataset: Deleting block blk_-8547071368131084410 file /mnt/hadoop/dfs/data/current/subdir38/blk_-8547071368131084410
081111 044556 19 INFO dfs.FSDataset: Deleting block blk_-5429042599096020592 file /mnt/hadoop/dfs/data/current/subdir34/blk_-5429042599096020592
</block>

<block lines="1491-1500" score="0.0591">
081111 054504 21552 INFO dfs.DataNode$PacketResponder: PacketResponder 1 for block blk_2151150262081352617 terminating
081111 054731 29 INFO dfs.FSNamesystem: BLOCK* NameSystem.delete: blk_3280859030919654043 is added to invalidSet of 10.251.214.130:50010
081111 054811 21215 INFO dfs.DataNode$PacketResponder: PacketResponder 2 for block blk_-6811828069408410657 terminating
081111 054914 21234 INFO dfs.DataNode$PacketResponder: Received block blk_4967370797322420259 of size 67108864 from /10.251.39.192
081111 055147 28 INFO dfs.FSNamesystem: BLOCK* NameSystem.addStoredBlock: blockMap updated: 10.251.127.243:50010 is added to blk_-719178972315562824 size 67108864
081111 055219 33 INFO dfs.FSNamesystem: BLOCK* NameSystem.addStoredBlock: blockMap updated: 10.251.67.4:50010 is added to blk_9093176996492793041 size 67108864
081111 055444 21503 INFO dfs.DataNode$PacketResponder: PacketResponder 1 for block blk_-7200400342436668240 terminating
081111 055501 21608 INFO dfs.DataNode$PacketResponder: Received block blk_7213990003235926706 of size 67108864 from /10.250.11.100
081111 055640 28 INFO dfs.FSNamesystem: BLOCK* NameSystem.addStoredBlock: blockMap updated: 10.250.7.32:50010 is added to blk_-2125743956855238111 size 67108864
081111 055936 28 INFO dfs.FSNamesystem: BLOCK* NameSystem.addStoredBlock: blockMap updated: 10.250.7.244:50010 is added to blk_-4875138366845786590 size 67108864
</block>

<block lines="1541-1550" score="0.0577">
081111 063402 33 INFO dfs.FSNamesystem: BLOCK* NameSystem.addStoredBlock: blockMap updated: 10.251.75.143:50010 is added to blk_-1379379987510648393 size 67108864
081111 063413 26 INFO dfs.FSNamesystem: BLOCK* NameSystem.allocateBlock: /user/root/randtxt5/_temporary/_task_200811101024_0012_m_001726_0/part-01726. blk_1858805942071850133
081111 063451 31 INFO dfs.FSNamesystem: BLOCK* NameSystem.allocateBlock: /user/root/randtxt5/_temporary/_task_200811101024_0012_m_001554_0/part-01554. blk_5183831565578080242
081111 063459 21912 INFO dfs.DataNode$DataXceiver: Receiving block blk_3248835454898465560 src: /10.251.42.84:40950 dest: /10.251.42.84:50010
081111 063514 35 INFO dfs.FSNamesystem: BLOCK* NameSystem.allocateBlock: /user/root/randtxt5/_temporary/_task_200811101024_0012_m_001709_0/part-01709. blk_3776895047834644694
081111 063636 28 INFO dfs.FSNamesystem: BLOCK* NameSystem.addStoredBlock: blockMap updated: 10.251.43.192:50010 is added to blk_8521306385156958668 size 67108864
081111 063859 22169 INFO dfs.DataNode$DataXceiver: Receiving block blk_1606295458729964667 src: /10.251.214.32:47910 dest: /10.251.214.32:50010
081111 063923 35 INFO dfs.FSNamesystem: BLOCK* NameSystem.addStoredBlock: blockMap updated: 10.251.203.149:50010 is added to blk_-7282356322111075290 size 67108864
081111 063944 31 INFO dfs.FSNamesystem: BLOCK* NameSystem.addStoredBlock: blockMap updated: 10.251.122.65:50010 is added to blk_-5330522460969948971 size 67108864
081111 064011 22583 INFO dfs.DataNode$PacketResponder: PacketResponder 2 for block blk_1077394056781488 terminating
</block>

<block lines="1576-1590" score="0.2346">
081111 065227 26 INFO dfs.FSNamesystem: BLOCK* NameSystem.delete: blk_3231389654886008065 is added to invalidSet of 10.251.195.52:50010
081111 065227 26 INFO dfs.FSNamesystem: BLOCK* NameSystem.delete: blk_3637945019239882309 is added to invalidSet of 10.251.198.196:50010
081111 065229 19 INFO dfs.FSDataset: Deleting block blk_-7423574498760490375 file /mnt/hadoop/dfs/data/current/subdir58/blk_-7423574498760490375
081111 065254 19 INFO dfs.FSNamesystem: BLOCK* ask 10.250.17.177:50010 to delete  blk_-8570780307468499817 blk_-9122557405432088649 blk_-4393063808227796056 blk_8767569714374844347 blk_7079754042611867581 blk_7608961006114219538 blk_-5017273584996436939 blk_-6537833125980536955 blk_7610838808763810123 blk_3300803097775546532 blk_-5120750586032922592 blk_1577274266662884430 blk_765879159867598347 blk_-9076085976403711202 blk_-3198963348573340497 blk_-4645750029177277209 blk_-5136142986912961316 blk_5677959846373741243 blk_2107477892986152528 blk_-4235116161537008844 blk_6082535783543982566 blk_-4809870147222033236 blk_8818706925296961012 blk_-5203577173046267127 blk_189089569009261656 blk_446299976487589160 blk_-3916247521166632303 blk_-3324962406687427922 blk_-1807424528783081572 blk_-6858401049333055963 blk_6036564204960295926 blk_-8140723044408248078 blk_-3800132731140204959 blk_1716344083117307767 blk_-5194808114606613364 blk_-5473871016976323232 blk_2920934363167004552 blk_8736689095894369097 blk_-7642734632751940776 blk_3408482260833769309 blk_118013751374560901 blk_7963891081239759520 blk_3813114133944383323 blk_3042818489384932576 blk_-4570173726231458270 blk_-1564644006975920581 blk_338095650783321996 blk_3150135312641203550 blk_4285859645577726288 blk_3438772130782939627 blk_2634772258588877972 blk_-6795664812575964130 blk_3923069610304693233 blk_-1782996202120067721 blk_2004418049430157212 blk_1932147224007687756 blk_-582901062969027153 blk_5072240701440032119 blk_-7919006477393039068 blk_-7318022361288598312 blk_-6974693594143537436 blk_-5435767047126325206 blk_-5805500288959332434 blk_-7109885589081848850 blk_2161580591957523893 blk_7240227881194993860 blk_-8298405680648445349 blk_-4253026248821272215 blk_8377661448601579317 blk_8029153852899017155 blk_-8754388319080705916 blk_-7844092300527332901 blk_710178463364063355 blk_-5136849989188547884 blk_8393887138377503163 blk_-6950176077776664217 blk_-6488701068659548195 blk_2537458728254532453 blk_364441107933628577 blk_6207861897580168557 blk_8814943807366894581 blk_-4150682644311695471 blk_9174833667156726933 blk_649427218152856001 blk_-7403541028238011236 blk_-334982586592048773 blk_61908781908925992 blk_6385574357371832424 blk_-66376131060945541 blk_1372596948297458670 blk_-3389135155401857220 blk_-6035411221441929663 blk_-5127580069634421247 blk_-5685246533892022418 blk_4977937528993040451 blk_5680538862600094527 blk_-8378747462487962732 blk_425101290285860876 blk_6306622708327890839 blk_-1067866602168873257
081111 065258 19 INFO dfs.FSDataset: Deleting block blk_-9169228974826183399 file /mnt/hadoop/dfs/data/current/subdir5/blk_-9169228974826183399
081111 065303 19 INFO dfs.FSNamesystem: BLOCK* ask 10.250.10.213:50010 to delete  blk_4029139044660806713 blk_-5471189807977280544 blk_6708643067868168687 blk_-500678958150296008 blk_-8597840983621849778 blk_-3610057702150392748 blk_-1709606535283888232 blk_-4154362211643572668 blk_-8892080524136798472 blk_5356427838869009345 blk_-6987238639050161133 blk_-5215128860160823363 blk_7186692462976470823 blk_-6538449588297475521 blk_-2165930080589343952 blk_-5524899010031625427 blk_6384439316405471171 blk_-2965258329365213675 blk_118950937507976810 blk_-1717088081766373300 blk_-3911466865418055820 blk_1237334407720045724 blk_-760015977981369567 blk_-6802007379650646616 blk_-7667535133893574689 blk_6865645438678864855 blk_4633996820313194570 blk_7225301266481603731 blk_-4930257130609958866 blk_-4124845864570823487 blk_4927011145115127531 blk_7234346856930822716 blk_7159969052744592746 blk_1296823600557793869 blk_2209319141644287774 blk_-622218131799806364 blk_-8154516246083521409 blk_4466433199471909449 blk_8406894133999850666 blk_991075908349619367 blk_-2081474832657208733 blk_-5573393775847919985 blk_2004177185950968695 blk_4041319486058127641 blk_6449230045010995668 blk_5978265573904271474 blk_-4813738732036414715 blk_4389340532803855247 blk_-857151863616763327 blk_-7200136644339435027 blk_-1454962873426270839 blk_-5012294311590635938 blk_7112727670634942639 blk_3335012758760643328 blk_3382627815322561484 blk_825124020036421636 blk_-8040559034239258688 blk_-5415591001139074826 blk_-1052513063506891954 blk_-1155882018729560343 blk_-5679835604685169040 blk_-4498808851217768984 blk_8345415947062862337 blk_8521655806854586696 blk_7602939593939794410 blk_-4833650023923869528 blk_7237730029042141635 blk_2860897425785746911 blk_-1937193099911148343 blk_5740615689780260922 blk_963252337613423037 blk_5537011318013544619 blk_2626057344048606017 blk_8296499240199635880 blk_7211071078501521087 blk_8823112510768971040 blk_-3366974935992288326 blk_-2947778702643296262 blk_7693891282153136044 blk_4644812717442758529 blk_-5724970555730638200 blk_-3039294462945223064 blk_-1729755380346651221 blk_-6448673813272428418 blk_-7724282460846954976 blk_2698691234887375588 blk_-4043525878322523713 blk_-5195120009388265 blk_8879208244602324204 blk_-5784376901556131897 blk_-5201149273969117873 blk_5253889604362640423 blk_7067050654303940677 blk_8992626816092659826 blk_-488462739843441981 blk_8543991617360374935 blk_1943146154560599630 blk_-9194660123773136535 blk_3351984198891394382 blk_-6759123807563555545
081111 065339 22547 INFO dfs.DataNode$PacketResponder: Received block blk_5406084276349645828 of size 67108864 from /10.250.10.223
081111 065404 22999 INFO dfs.DataNode$PacketResponder: PacketResponder 1 for block blk_2016964533702776852 terminating
081111 065418 18 INFO dfs.FSDataset: Deleting block blk_-1306900105984505600 file /mnt/hadoop/dfs/data/current/subdir31/blk_-1306900105984505600
081111 065420 19 INFO dfs.FSDataset: Deleting block blk_-1312981516354612257 file /mnt/hadoop/dfs/data/current/subdir29/blk_-1312981516354612257
081111 065420 19 INFO dfs.FSDataset: Deleting block blk_-2658615574293326723 file /mnt/hadoop/dfs/data/current/subdir37/blk_-2658615574293326723
081111 065423 19 INFO dfs.FSDataset: Deleting block blk_2107487634698646045 file /mnt/hadoop/dfs/data/current/subdir3/blk_2107487634698646045
081111 065426 19 INFO dfs.FSDataset: Deleting block blk_-253282915050290778 file /mnt/hadoop/dfs/data/current/subdir23/blk_-253282915050290778
081111 065435 19 INFO dfs.FSDataset: Deleting block blk_1587615395786683981 file /mnt/hadoop/dfs/data/current/subdir14/blk_1587615395786683981
081111 065437 19 INFO dfs.FSDataset: Deleting block blk_3706543205492061794 file /mnt/hadoop/dfs/data/current/subdir1/blk_3706543205492061794
</block>

<block lines="1721-1730" score="0.0767">
081111 075638 28 INFO dfs.FSNamesystem: BLOCK* NameSystem.delete: blk_-566178736644429906 is added to invalidSet of 10.251.70.37:50010
081111 075640 28 INFO dfs.FSNamesystem: BLOCK* NameSystem.delete: blk_-8121498678081035000 is added to invalidSet of 10.250.11.100:50010
081111 075657 23748 INFO dfs.DataNode$DataXceiver: Receiving block blk_7996616083434301906 src: /10.251.123.195:53947 dest: /10.251.123.195:50010
081111 075727 19 INFO dfs.FSDataset: Deleting block blk_6888300867578983331 file /mnt/hadoop/dfs/data/current/subdir46/blk_6888300867578983331
081111 075743 23596 INFO dfs.DataNode$PacketResponder: PacketResponder 0 for block blk_7625391056418655045 terminating
081111 075746 19 INFO dfs.FSDataset: Deleting block blk_-8443921001690182522 file /mnt/hadoop/dfs/data/current/subdir33/blk_-8443921001690182522
081111 075747 23844 INFO dfs.DataNode$DataXceiver: Receiving block blk_706826531153199550 src: /10.250.5.161:58254 dest: /10.250.5.161:50010
081111 075753 19 INFO dfs.FSDataset: Deleting block blk_-7446091384471755694 file /mnt/hadoop/dfs/data/current/subdir30/blk_-7446091384471755694
081111 075759 19 INFO dfs.FSDataset: Deleting block blk_-4352313989800650828 file /mnt/hadoop/dfs/data/current/subdir56/blk_-4352313989800650828
081111 075809 19 INFO dfs.FSDataset: Deleting block blk_-6292499669518281202 file /mnt/hadoop/dfs/data/current/subdir26/blk_-6292499669518281202
</block>

<block lines="1746-1755" score="0.0554">
081111 075915 19 INFO dfs.FSDataset: Deleting block blk_7985460426680885040 file /mnt/hadoop/dfs/data/current/blk_7985460426680885040
081111 075920 19 INFO dfs.FSDataset: Deleting block blk_2215517976324634098 file /mnt/hadoop/dfs/data/current/subdir4/blk_2215517976324634098
081111 075920 19 INFO dfs.FSDataset: Deleting block blk_5453150794205420798 file /mnt/hadoop/dfs/data/current/subdir24/blk_5453150794205420798
081111 075933 27 INFO dfs.FSNamesystem: BLOCK* NameSystem.addStoredBlock: blockMap updated: 10.251.194.102:50010 is added to blk_-7522572236891389139 size 67108864
081111 075957 19 INFO dfs.FSDataset: Deleting block blk_6163400028286940197 file /mnt/hadoop/dfs/data/current/subdir7/blk_6163400028286940197
081111 080006 19 INFO dfs.FSDataset: Deleting block blk_7583807825342916938 file /mnt/hadoop/dfs/data/current/subdir13/blk_7583807825342916938
081111 080019 23787 INFO dfs.DataNode$DataXceiver: Receiving block blk_-5957060034695163774 src: /10.251.29.239:56334 dest: /10.251.29.239:50010
081111 080108 24040 INFO dfs.DataNode$DataXceiver: Receiving block blk_-2250942073136893488 src: /10.251.126.22:59179 dest: /10.251.126.22:50010
081111 080118 23798 INFO dfs.DataNode$PacketResponder: Received block blk_-3693786175267111588 of size 67108864 from /10.251.71.97
081111 080151 19 INFO dfs.FSDataset: Deleting block blk_8384967715738359346 file /mnt/hadoop/dfs/data/current/subdir27/blk_8384967715738359346
</block>

<block lines="1841-1850" score="0.0837">
081111 085634 24881 INFO dfs.DataNode$DataXceiver: Receiving block blk_-5892603381347650390 src: /10.250.14.143:57484 dest: /10.250.14.143:50010
081111 085634 30 INFO dfs.FSNamesystem: BLOCK* NameSystem.allocateBlock: /user/root/rand7/_temporary/_task_200811101024_0014_m_002007_0/part-02007. blk_7908524857056299716
081111 085859 30 INFO dfs.FSNamesystem: BLOCK* NameSystem.delete: blk_3492869167398569662 is added to invalidSet of 10.250.5.161:50010
081111 085906 27 INFO dfs.FSNamesystem: BLOCK* NameSystem.delete: blk_-3894803026385053344 is added to invalidSet of 10.251.43.21:50010
081111 085906 27 INFO dfs.FSNamesystem: BLOCK* NameSystem.delete: blk_-7873581794069372986 is added to invalidSet of 10.251.194.147:50010
081111 085907 27 INFO dfs.FSNamesystem: BLOCK* NameSystem.delete: blk_2060553104861908174 is added to invalidSet of 10.251.201.204:50010
081111 085909 27 INFO dfs.FSNamesystem: BLOCK* NameSystem.delete: blk_-6783506473540833076 is added to invalidSet of 10.251.202.209:50010
081111 085910 27 INFO dfs.FSNamesystem: BLOCK* NameSystem.delete: blk_-8863130543753323383 is added to invalidSet of 10.251.123.1:50010
081111 085911 27 INFO dfs.FSNamesystem: BLOCK* NameSystem.delete: blk_-8769398708439834546 is added to invalidSet of 10.251.127.243:50010
081111 085912 27 INFO dfs.FSNamesystem: BLOCK* NameSystem.delete: blk_-3316519570098743145 is added to invalidSet of 10.251.70.211:50010
</block>

<block lines="1861-1870" score="0.0590">
081111 085924 27 INFO dfs.FSNamesystem: BLOCK* NameSystem.delete: blk_-793506372912437289 is added to invalidSet of 10.250.17.225:50010
081111 085926 27 INFO dfs.FSNamesystem: BLOCK* NameSystem.delete: blk_-5293091556505218722 is added to invalidSet of 10.251.125.237:50010
081111 085929 27 INFO dfs.FSNamesystem: BLOCK* NameSystem.delete: blk_4516306414837452219 is added to invalidSet of 10.251.127.47:50010
081111 090008 19 INFO dfs.FSDataset: Deleting block blk_-8792837405349224102 file /mnt/hadoop/dfs/data/current/subdir35/blk_-8792837405349224102
081111 090031 19 INFO dfs.FSDataset: Deleting block blk_-8131422413299851907 file /mnt/hadoop/dfs/data/current/subdir46/blk_-8131422413299851907
081111 090034 24870 INFO dfs.DataNode$PacketResponder: PacketResponder 0 for block blk_-2268477281422551537 terminating
081111 090056 19 INFO dfs.FSDataset: Deleting block blk_-6177194341369822651 file /mnt/hadoop/dfs/data/current/subdir38/blk_-6177194341369822651
081111 090113 18 INFO dfs.FSDataset: Deleting block blk_1369784431092292099 file /mnt/hadoop/dfs/data/current/subdir36/blk_1369784431092292099
081111 090113 19 INFO dfs.FSDataset: Deleting block blk_-8060252929692927663 file /mnt/hadoop/dfs/data/current/subdir21/blk_-8060252929692927663
081111 090118 19 INFO dfs.FSDataset: Deleting block blk_-5344266425789048231 file /mnt/hadoop/dfs/data/current/subdir47/blk_-5344266425789048231
</block>

<block lines="1886-1895" score="0.0660">
081111 090229 18 INFO dfs.FSDataset: Deleting block blk_5100975846124291571 file /mnt/hadoop/dfs/data/current/subdir38/blk_5100975846124291571
081111 090246 19 INFO dfs.FSDataset: Deleting block blk_-4941547144875557718 file /mnt/hadoop/dfs/data/current/subdir61/blk_-4941547144875557718
081111 090339 24904 INFO dfs.DataNode$PacketResponder: PacketResponder 2 for block blk_6791628131402590260 terminating
081111 090816 31 INFO dfs.FSNamesystem: BLOCK* NameSystem.addStoredBlock: blockMap updated: 10.251.107.196:50010 is added to blk_-6308508598639278892 size 67108864
081111 090818 25109 INFO dfs.DataNode$DataXceiver: Receiving block blk_6585429064641693815 src: /10.250.10.6:38158 dest: /10.250.10.6:50010
081111 091002 25162 INFO dfs.DataNode$PacketResponder: Received block blk_6000837850922531821 of size 67108864 from /10.251.197.226
081111 091027 25209 INFO dfs.DataNode$PacketResponder: Received block blk_7330803663603700184 of size 67108864 from /10.251.42.246
081111 091200 27 INFO dfs.FSNamesystem: BLOCK* NameSystem.allocateBlock: /user/root/rand8/_temporary/_task_200811101024_0015_m_000480_0/part-00480. blk_-5613694521084380933
081111 091244 19683 INFO dfs.DataNode$DataXceiver: Receiving block blk_-4967783186426171722 src: /10.251.39.192:57105 dest: /10.251.39.192:50010
081111 091317 31 INFO dfs.FSNamesystem: BLOCK* NameSystem.addStoredBlock: blockMap updated: 10.250.11.100:50010 is added to blk_-1970947032352756307 size 67108864
</block>

<block lines="1901-1920" score="0.0736">
081111 091733 19 INFO dfs.FSNamesystem: BLOCK* ask 10.251.126.5:50010 to delete  blk_-9016567407076718172 blk_-8695715290502978219 blk_-7168328752988473716 blk_-4355192005224403537 blk_-3757501769775889193 blk_-154600013573668394 blk_167132135416677587 blk_2654596473569751784 blk_5202581916713319258
081111 091742 19 INFO dfs.FSDataset: Deleting block blk_-2808875502459981198 file /mnt/hadoop/dfs/data/current/subdir3/blk_-2808875502459981198
081111 091837 24935 INFO dfs.DataNode$PacketResponder: PacketResponder 0 for block blk_34905976850091068 terminating
081111 092003 25315 INFO dfs.DataNode$PacketResponder: Received block blk_4774383661473695119 of size 67108864 from /10.251.110.68
081111 092023 25367 INFO dfs.DataNode$DataXceiver: Receiving block blk_465845235850106928 src: /10.251.70.112:39499 dest: /10.251.70.112:50010
081111 092213 25595 INFO dfs.DataNode$PacketResponder: PacketResponder 1 for block blk_8882415653769775762 terminating
081111 092239 25403 INFO dfs.DataNode$PacketResponder: PacketResponder 2 for block blk_4207359722112667226 terminating
081111 092311 35 INFO dfs.FSNamesystem: BLOCK* NameSystem.allocateBlock: /user/root/rand8/_temporary/_task_200811101024_0015_m_000882_0/part-00882. blk_-3152434225121092058
081111 092425 25331 INFO dfs.DataNode$DataXceiver: Receiving block blk_4820650745157199554 src: /10.251.127.243:49726 dest: /10.251.127.243:50010
081111 092436 29 INFO dfs.FSNamesystem: BLOCK* NameSystem.addStoredBlock: blockMap updated: 10.250.6.223:50010 is added to blk_-6390296685077811803 size 3546314
081111 092617 19 INFO dfs.FSDataset: Deleting block blk_9173199815015538212 file /mnt/hadoop/dfs/data/current/subdir24/blk_9173199815015538212
081111 092649 28 INFO dfs.FSNamesystem: BLOCK* NameSystem.allocateBlock: /user/root/rand8/_temporary/_task_200811101024_0015_m_001033_0/part-01033. blk_-8948316319329891645
081111 092720 27 INFO dfs.FSNamesystem: BLOCK* NameSystem.addStoredBlock: blockMap updated: 10.251.42.207:50010 is added to blk_-6314365697827006048 size 67108864
081111 092751 28 INFO dfs.FSNamesystem: BLOCK* NameSystem.allocateBlock: /user/root/rand8/_temporary/_task_200811101024_0015_m_000939_0/part-00939. blk_-3522956055443924791
081111 092821 25409 INFO dfs.DataNode$PacketResponder: PacketResponder 2 for block blk_5454423648092670683 terminating
081111 092915 25283 INFO dfs.DataNode$PacketResponder: PacketResponder 1 for block blk_4565822428702518889 terminating
081111 093026 34 INFO dfs.FSNamesystem: BLOCK* NameSystem.addStoredBlock: blockMap updated: 10.251.29.239:50010 is added to blk_-409558225151784282 size 67108864
081111 093208 25332 INFO dfs.DataNode$PacketResponder: PacketResponder 1 for block blk_-3967261531426400230 terminating
081111 093316 25596 INFO dfs.DataNode$DataXceiver: Receiving block blk_-4655280636272058732 src: /10.251.26.8:48892 dest: /10.251.26.8:50010
081111 093350 25537 INFO dfs.DataNode$PacketResponder: PacketResponder 2 for block blk_-5799866343936729403 terminating
</block>

<block lines="1926-1935" score="0.0573">
081111 093701 24237 INFO dfs.DataNode$DataXceiver: Receiving block blk_3598226258881465924 src: /10.251.199.159:41752 dest: /10.251.199.159:50010
081111 093703 25622 INFO dfs.DataNode$PacketResponder: PacketResponder 0 for block blk_3378157549705391333 terminating
081111 093742 13 INFO dfs.DataBlockScanner: Verification succeeded for blk_-8347949825960763812
081111 093814 25929 INFO dfs.DataNode$PacketResponder: Received block blk_-2934265883100282310 of size 67108864 from /10.251.39.144
081111 093823 25642 INFO dfs.DataNode$PacketResponder: PacketResponder 2 for block blk_1259893634804870815 terminating
081111 093913 25312 INFO dfs.DataNode$PacketResponder: PacketResponder 2 for block blk_412956398445037066 terminating
081111 093952 25849 INFO dfs.DataNode$PacketResponder: Received block blk_-9167880724995702718 of size 67108864 from /10.251.214.225
081111 094008 26005 INFO dfs.DataNode$DataXceiver: Receiving block blk_-7764040409370932316 src: /10.251.125.237:58496 dest: /10.251.125.237:50010
081111 094052 25242 INFO dfs.DataNode$DataXceiver: Receiving block blk_931297048899943584 src: /10.251.67.113:54324 dest: /10.251.67.113:50010
081111 094221 25770 INFO dfs.DataNode$PacketResponder: PacketResponder 2 for block blk_2833019093942278701 terminating
</block>

<block lines="1966-1975" score="0.0596">
081111 095957 26 INFO dfs.FSNamesystem: BLOCK* NameSystem.addStoredBlock: blockMap updated: 10.251.75.49:50010 is added to blk_-2959268996938658555 size 15715490
081111 100210 19 INFO dfs.FSDataset: Deleting block blk_-1082541280306680938 file /mnt/hadoop/dfs/data/current/subdir38/blk_-1082541280306680938
081111 100223 26181 INFO dfs.DataNode$PacketResponder: PacketResponder 1 for block blk_-191333338640084691 terminating
081111 100226 26261 INFO dfs.DataNode$DataXceiver: Receiving block blk_3972778210951456006 src: /10.251.121.224:56526 dest: /10.251.121.224:50010
081111 100245 26152 INFO dfs.DataNode$PacketResponder: PacketResponder 0 for block blk_1408672604432845193 terminating
081111 100323 14118 INFO dfs.DataNode$PacketResponder: Received block blk_7679838117000095334 of size 67108864 from /10.251.30.85
081111 100350 32 INFO dfs.FSNamesystem: BLOCK* NameSystem.addStoredBlock: blockMap updated: 10.250.13.240:50010 is added to blk_2593937801738981947 size 67108864
081111 100414 35 INFO dfs.FSNamesystem: BLOCK* NameSystem.addStoredBlock: blockMap updated: 10.251.71.193:50010 is added to blk_5489815612272797790 size 67108864
081111 100417 30 INFO dfs.FSNamesystem: BLOCK* NameSystem.addStoredBlock: blockMap updated: 10.251.30.101:50010 is added to blk_6451403582950672007 size 67108864
081111 100646 26268 INFO dfs.DataNode$DataXceiver: Receiving block blk_-7048088870427586736 src: /10.250.10.100:56512 dest: /10.250.10.100:50010
</block>
